target datalayout = "e-m:e-p270:32:32-p271:32:32-p272:64:64-i64:64-i128:128-f80:128-n8:16:32:64-S128"
target triple = "x86_64-pc-linux-gnu"

@.str = private unnamed_addr constant [20 x i8] c"Invalid scancode %i\00", align 1
@.str.1 = private unnamed_addr constant [2 x i8] c"'\00", align 1
@.str.2 = private unnamed_addr constant [2 x i8] c",\00", align 1
@.str.3 = private unnamed_addr constant [2 x i8] c"-\00", align 1
@.str.4 = private unnamed_addr constant [2 x i8] c".\00", align 1
@.str.5 = private unnamed_addr constant [2 x i8] c"/\00", align 1
@.str.6 = private unnamed_addr constant [2 x i8] c";\00", align 1
@.str.7 = private unnamed_addr constant [2 x i8] c"=\00", align 1
@.str.8 = private unnamed_addr constant [2 x i8] c"[\00", align 1
@.str.9 = private unnamed_addr constant [2 x i8] c"]\00", align 1
@.str.10 = private unnamed_addr constant [2 x i8] c"*\00", align 1
@.str.11 = private unnamed_addr constant [2 x i8] c"+\00", align 1
@.str.12 = private unnamed_addr constant [2 x i8] c"\\\00", align 1
@.str.13 = private unnamed_addr constant [2 x i8] c"0\00", align 1
@.str.14 = private unnamed_addr constant [2 x i8] c"1\00", align 1
@.str.15 = private unnamed_addr constant [2 x i8] c"2\00", align 1
@.str.16 = private unnamed_addr constant [2 x i8] c"3\00", align 1
@.str.17 = private unnamed_addr constant [2 x i8] c"4\00", align 1
@.str.18 = private unnamed_addr constant [2 x i8] c"5\00", align 1
@.str.19 = private unnamed_addr constant [2 x i8] c"6\00", align 1
@.str.20 = private unnamed_addr constant [2 x i8] c"7\00", align 1
@.str.21 = private unnamed_addr constant [2 x i8] c"8\00", align 1
@.str.22 = private unnamed_addr constant [2 x i8] c"9\00", align 1
@.str.23 = private unnamed_addr constant [2 x i8] c"a\00", align 1
@.str.24 = private unnamed_addr constant [2 x i8] c"b\00", align 1
@.str.25 = private unnamed_addr constant [2 x i8] c"c\00", align 1
@.str.26 = private unnamed_addr constant [2 x i8] c"d\00", align 1
@.str.27 = private unnamed_addr constant [2 x i8] c"e\00", align 1
@.str.28 = private unnamed_addr constant [2 x i8] c"f\00", align 1
@.str.29 = private unnamed_addr constant [2 x i8] c"g\00", align 1
@.str.30 = private unnamed_addr constant [2 x i8] c"h\00", align 1
@.str.31 = private unnamed_addr constant [2 x i8] c"i\00", align 1
@.str.32 = private unnamed_addr constant [2 x i8] c"j\00", align 1
@.str.33 = private unnamed_addr constant [2 x i8] c"k\00", align 1
@.str.34 = private unnamed_addr constant [2 x i8] c"l\00", align 1
@.str.35 = private unnamed_addr constant [2 x i8] c"m\00", align 1
@.str.36 = private unnamed_addr constant [2 x i8] c"n\00", align 1
@.str.37 = private unnamed_addr constant [2 x i8] c"o\00", align 1
@.str.38 = private unnamed_addr constant [2 x i8] c"p\00", align 1
@.str.39 = private unnamed_addr constant [2 x i8] c"q\00", align 1
@.str.40 = private unnamed_addr constant [2 x i8] c"r\00", align 1
@.str.41 = private unnamed_addr constant [2 x i8] c"s\00", align 1
@.str.42 = private unnamed_addr constant [2 x i8] c"t\00", align 1
@.str.43 = private unnamed_addr constant [2 x i8] c"u\00", align 1
@.str.44 = private unnamed_addr constant [2 x i8] c"v\00", align 1
@.str.45 = private unnamed_addr constant [2 x i8] c"w\00", align 1
@.str.46 = private unnamed_addr constant [2 x i8] c"x\00", align 1
@.str.47 = private unnamed_addr constant [2 x i8] c"y\00", align 1
@.str.48 = private unnamed_addr constant [2 x i8] c"z\00", align 1

; Function Attrs: nounwind uwtable
define hidden ptr @_glfwGetScancodeNameNull(i32 noundef %0) #0 {
  %2 = alloca ptr, align 8
  %3 = alloca i32, align 4
  store i32 %0, ptr %3, align 4, !tbaa !88
  %4 = load i32, ptr %3, align 4, !tbaa !88
  %5 = icmp slt i32 %4, 1
  br i1 %5, label %9, label %6

6:                                                ; preds = %1
  %7 = load i32, ptr %3, align 4, !tbaa !88
  %8 = icmp sgt i32 %7, 120
  br i1 %8, label %9, label %11

9:                                                ; preds = %6, %1
  %10 = load i32, ptr %3, align 4, !tbaa !88
  call void (i32, ptr, ...) @_glfwInputError(i32 noundef 65540, ptr noundef @.str, i32 noundef %10)
  store ptr null, ptr %2, align 8
  br label %62

11:                                               ; preds = %6
  %12 = load i32, ptr %3, align 4, !tbaa !88
  switch i32 %12, label %61 [
    i32 2, label %13
    i32 3, label %14
    i32 4, label %15
    i32 108, label %15
    i32 5, label %16
    i32 105, label %16
    i32 6, label %17
    i32 106, label %17
    i32 17, label %18
    i32 18, label %19
    i32 111, label %19
    i32 19, label %20
    i32 21, label %21
    i32 107, label %22
    i32 109, label %23
    i32 20, label %24
    i32 23, label %24
    i32 24, label %24
    i32 7, label %25
    i32 95, label %25
    i32 8, label %26
    i32 96, label %26
    i32 9, label %27
    i32 97, label %27
    i32 10, label %28
    i32 98, label %28
    i32 11, label %29
    i32 99, label %29
    i32 12, label %30
    i32 100, label %30
    i32 13, label %31
    i32 101, label %31
    i32 14, label %32
    i32 102, label %32
    i32 15, label %33
    i32 103, label %33
    i32 16, label %34
    i32 104, label %34
    i32 44, label %35
    i32 45, label %36
    i32 46, label %37
    i32 47, label %38
    i32 48, label %39
    i32 49, label %40
    i32 50, label %41
    i32 51, label %42
    i32 52, label %43
    i32 53, label %44
    i32 54, label %45
    i32 55, label %46
    i32 56, label %47
    i32 57, label %48
    i32 58, label %49
    i32 59, label %50
    i32 60, label %51
    i32 61, label %52
    i32 62, label %53
    i32 63, label %54
    i32 64, label %55
    i32 65, label %56
    i32 66, label %57
    i32 67, label %58
    i32 68, label %59
    i32 69, label %60
  ]

13:                                               ; preds = %11
  store ptr @.str.1, ptr %2, align 8
  br label %62

14:                                               ; preds = %11
  store ptr @.str.2, ptr %2, align 8
  br label %62

15:                                               ; preds = %11, %11
  store ptr @.str.3, ptr %2, align 8
  br label %62

16:                                               ; preds = %11, %11
  store ptr @.str.4, ptr %2, align 8
  br label %62

17:                                               ; preds = %11, %11
  store ptr @.str.5, ptr %2, align 8
  br label %62

18:                                               ; preds = %11
  store ptr @.str.6, ptr %2, align 8
  br label %62

19:                                               ; preds = %11, %11
  store ptr @.str.7, ptr %2, align 8
  br label %62

20:                                               ; preds = %11
  store ptr @.str.8, ptr %2, align 8
  br label %62

21:                                               ; preds = %11
  store ptr @.str.9, ptr %2, align 8
  br label %62

22:                                               ; preds = %11
  store ptr @.str.10, ptr %2, align 8
  br label %62

23:                                               ; preds = %11
  store ptr @.str.11, ptr %2, align 8
  br label %62

24:                                               ; preds = %11, %11, %11
  store ptr @.str.12, ptr %2, align 8
  br label %62

25:                                               ; preds = %11, %11
  store ptr @.str.13, ptr %2, align 8
  br label %62

26:                                               ; preds = %11, %11
  store ptr @.str.14, ptr %2, align 8
  br label %62

27:                                               ; preds = %11, %11
  store ptr @.str.15, ptr %2, align 8
  br label %62

28:                                               ; preds = %11, %11
  store ptr @.str.16, ptr %2, align 8
  br label %62

29:                                               ; preds = %11, %11
  store ptr @.str.17, ptr %2, align 8
  br label %62

30:                                               ; preds = %11, %11
  store ptr @.str.18, ptr %2, align 8
  br label %62

31:                                               ; preds = %11, %11
  store ptr @.str.19, ptr %2, align 8
  br label %62

32:                                               ; preds = %11, %11
  store ptr @.str.20, ptr %2, align 8
  br label %62

33:                                               ; preds = %11, %11
  store ptr @.str.21, ptr %2, align 8
  br label %62

34:                                               ; preds = %11, %11
  store ptr @.str.22, ptr %2, align 8
  br label %62

35:                                               ; preds = %11
  store ptr @.str.23, ptr %2, align 8
  br label %62

36:                                               ; preds = %11
  store ptr @.str.24, ptr %2, align 8
  br label %62

37:                                               ; preds = %11
  store ptr @.str.25, ptr %2, align 8
  br label %62

38:                                               ; preds = %11
  store ptr @.str.26, ptr %2, align 8
  br label %62

39:                                               ; preds = %11
  store ptr @.str.27, ptr %2, align 8
  br label %62

40:                                               ; preds = %11
  store ptr @.str.28, ptr %2, align 8
  br label %62

41:                                               ; preds = %11
  store ptr @.str.29, ptr %2, align 8
  br label %62

42:                                               ; preds = %11
  store ptr @.str.30, ptr %2, align 8
  br label %62

43:                                               ; preds = %11
  store ptr @.str.31, ptr %2, align 8
  br label %62

44:                                               ; preds = %11
  store ptr @.str.32, ptr %2, align 8
  br label %62

45:                                               ; preds = %11
  store ptr @.str.33, ptr %2, align 8
  br label %62

46:                                               ; preds = %11
  store ptr @.str.34, ptr %2, align 8
  br label %62

47:                                               ; preds = %11
  store ptr @.str.35, ptr %2, align 8
  br label %62

48:                                               ; preds = %11
  store ptr @.str.36, ptr %2, align 8
  br label %62

49:                                               ; preds = %11
  store ptr @.str.37, ptr %2, align 8
  br label %62

50:                                               ; preds = %11
  store ptr @.str.38, ptr %2, align 8
  br label %62

51:                                               ; preds = %11
  store ptr @.str.39, ptr %2, align 8
  br label %62

52:                                               ; preds = %11
  store ptr @.str.40, ptr %2, align 8
  br label %62

53:                                               ; preds = %11
  store ptr @.str.41, ptr %2, align 8
  br label %62

54:                                               ; preds = %11
  store ptr @.str.42, ptr %2, align 8
  br label %62

55:                                               ; preds = %11
  store ptr @.str.43, ptr %2, align 8
  br label %62

56:                                               ; preds = %11
  store ptr @.str.44, ptr %2, align 8
  br label %62

57:                                               ; preds = %11
  store ptr @.str.45, ptr %2, align 8
  br label %62

58:                                               ; preds = %11
  store ptr @.str.46, ptr %2, align 8
  br label %62

59:                                               ; preds = %11
  store ptr @.str.47, ptr %2, align 8
  br label %62

60:                                               ; preds = %11
  store ptr @.str.48, ptr %2, align 8
  br label %62

61:                                               ; preds = %11
  store ptr null, ptr %2, align 8
  br label %62

62:                                               ; preds = %61, %60, %59, %58, %57, %56, %55, %54, %53, %52, %51, %50, %49, %48, %47, %46, %45, %44, %43, %42, %41, %40, %39, %38, %37, %36, %35, %34, %33, %32, %31, %30, %29, %28, %27, %26, %25, %24, %23, %22, %21, %20, %19, %18, %17, %16, %15, %14, %13, %9
  %63 = load ptr, ptr %2, align 8
  ret ptr %63
}